; ModuleID = '48/1556.c'
source_filename = "48/1556.c"
target datalayout = "e-m:e-p270:32:32-p271:32:32-p272:64:64-i64:64-f80:128-n8:16:32:64-S128"
target triple = "x86_64-pc-linux-gnu"

@a = common dso_local global [11 x [11 x i32]] zeroinitializer, align 16
@b = common dso_local global [11 x [11 x i32]] zeroinitializer, align 16
@.str = private unnamed_addr constant [6 x i8] c"%d %d\00", align 1
@m = common dso_local global i32 0, align 4
@n = common dso_local global i32 0, align 4
@.str.1 = private unnamed_addr constant [4 x i8] c"%d \00", align 1
@.str.2 = private unnamed_addr constant [4 x i8] c"%d\0A\00", align 1

; Function Attrs: noinline nounwind uwtable
define dso_local i32 @main() #0 {
  %1 = alloca i32, align 4
  %2 = alloca i32, align 4
  %3 = alloca i32, align 4
  %4 = alloca i32, align 4
  store i32 0, i32* %1, align 4
  call void @llvm.memset.p0i8.i64(i8* align 16 bitcast ([11 x [11 x i32]]* @a to i8*), i8 0, i64 4, i1 false)
  call void @llvm.memset.p0i8.i64(i8* align 16 bitcast ([11 x [11 x i32]]* @b to i8*), i8 0, i64 4, i1 false)
  %5 = call i32 (i8*, ...) @__isoc99_scanf(i8* getelementptr inbounds ([6 x i8], [6 x i8]* @.str, i64 0, i64 0), i32* @m, i32* @n)
  %6 = load i32, i32* @m, align 4
  store i32 %6, i32* getelementptr inbounds ([11 x [11 x i32]], [11 x [11 x i32]]* @a, i64 0, i64 5, i64 5), align 4
  store i32 1, i32* %4, align 4
  br label %7

7:                                                ; preds = %154, %0
  %8 = load i32, i32* %4, align 4
  %9 = load i32, i32* @n, align 4
  %10 = icmp sle i32 %8, %9
  br i1 %10, label %11, label %157

11:                                               ; preds = %7
  store i32 0, i32* %2, align 4
  br label %12

12:                                               ; preds = %37, %11
  %13 = load i32, i32* %2, align 4
  %14 = icmp sle i32 %13, 10
  br i1 %14, label %15, label %40

15:                                               ; preds = %12
  store i32 0, i32* %3, align 4
  br label %16

16:                                               ; preds = %33, %15
  %17 = load i32, i32* %3, align 4
  %18 = icmp sle i32 %17, 10
  br i1 %18, label %19, label %36

19:                                               ; preds = %16
  %20 = load i32, i32* %2, align 4
  %21 = sext i32 %20 to i64
  %22 = getelementptr inbounds [11 x [11 x i32]], [11 x [11 x i32]]* @a, i64 0, i64 %21
  %23 = load i32, i32* %3, align 4
  %24 = sext i32 %23 to i64
  %25 = getelementptr inbounds [11 x i32], [11 x i32]* %22, i64 0, i64 %24
  %26 = load i32, i32* %25, align 4
  %27 = load i32, i32* %2, align 4
  %28 = sext i32 %27 to i64
  %29 = getelementptr inbounds [11 x [11 x i32]], [11 x [11 x i32]]* @b, i64 0, i64 %28
  %30 = load i32, i32* %3, align 4
  %31 = sext i32 %30 to i64
  %32 = getelementptr inbounds [11 x i32], [11 x i32]* %29, i64 0, i64 %31
  store i32 %26, i32* %32, align 4
  br label %33

33:                                               ; preds = %19
  %34 = load i32, i32* %3, align 4
  %35 = add nsw i32 %34, 1
  store i32 %35, i32* %3, align 4
  br label %16

36:                                               ; preds = %16
  br label %37

37:                                               ; preds = %36
  %38 = load i32, i32* %2, align 4
  %39 = add nsw i32 %38, 1
  store i32 %39, i32* %2, align 4
  br label %12

40:                                               ; preds = %12
  %41 = load i32, i32* %4, align 4
  %42 = sub nsw i32 5, %41
  store i32 %42, i32* %2, align 4
  br label %43

43:                                               ; preds = %151, %40
  %44 = load i32, i32* %2, align 4
  %45 = load i32, i32* %4, align 4
  %46 = add nsw i32 5, %45
  %47 = icmp sle i32 %44, %46
  br i1 %47, label %48, label %154

48:                                               ; preds = %43
  %49 = load i32, i32* %4, align 4
  %50 = sub nsw i32 5, %49
  store i32 %50, i32* %3, align 4
  br label %51

51:                                               ; preds = %147, %48
  %52 = load i32, i32* %3, align 4
  %53 = load i32, i32* %4, align 4
  %54 = add nsw i32 5, %53
  %55 = icmp sle i32 %52, %54
  br i1 %55, label %56, label %150

56:                                               ; preds = %51
  %57 = load i32, i32* %2, align 4
  %58 = sub nsw i32 %57, 1
  %59 = sext i32 %58 to i64
  %60 = getelementptr inbounds [11 x [11 x i32]], [11 x [11 x i32]]* @b, i64 0, i64 %59
  %61 = load i32, i32* %3, align 4
  %62 = sub nsw i32 %61, 1
  %63 = sext i32 %62 to i64
  %64 = getelementptr inbounds [11 x i32], [11 x i32]* %60, i64 0, i64 %63
  %65 = load i32, i32* %64, align 4
  %66 = load i32, i32* %2, align 4
  %67 = sub nsw i32 %66, 1
  %68 = sext i32 %67 to i64
  %69 = getelementptr inbounds [11 x [11 x i32]], [11 x [11 x i32]]* @b, i64 0, i64 %68
  %70 = load i32, i32* %3, align 4
  %71 = sext i32 %70 to i64
  %72 = getelementptr inbounds [11 x i32], [11 x i32]* %69, i64 0, i64 %71
  %73 = load i32, i32* %72, align 4
  %74 = add nsw i32 %65, %73
  %75 = load i32, i32* %2, align 4
  %76 = sub nsw i32 %75, 1
  %77 = sext i32 %76 to i64
  %78 = getelementptr inbounds [11 x [11 x i32]], [11 x [11 x i32]]* @b, i64 0, i64 %77
  %79 = load i32, i32* %3, align 4
  %80 = add nsw i32 %79, 1
  %81 = sext i32 %80 to i64
  %82 = getelementptr inbounds [11 x i32], [11 x i32]* %78, i64 0, i64 %81
  %83 = load i32, i32* %82, align 4
  %84 = add nsw i32 %74, %83
  %85 = load i32, i32* %2, align 4
  %86 = sext i32 %85 to i64
  %87 = getelementptr inbounds [11 x [11 x i32]], [11 x [11 x i32]]* @b, i64 0, i64 %86
  %88 = load i32, i32* %3, align 4
  %89 = sub nsw i32 %88, 1
  %90 = sext i32 %89 to i64
  %91 = getelementptr inbounds [11 x i32], [11 x i32]* %87, i64 0, i64 %90
  %92 = load i32, i32* %91, align 4
  %93 = add nsw i32 %84, %92
  %94 = load i32, i32* %2, align 4
  %95 = sext i32 %94 to i64
  %96 = getelementptr inbounds [11 x [11 x i32]], [11 x [11 x i32]]* @b, i64 0, i64 %95
  %97 = load i32, i32* %3, align 4
  %98 = sext i32 %97 to i64
  %99 = getelementptr inbounds [11 x i32], [11 x i32]* %96, i64 0, i64 %98
  %100 = load i32, i32* %99, align 4
  %101 = mul nsw i32 2, %100
  %102 = add nsw i32 %93, %101
  %103 = load i32, i32* %2, align 4
  %104 = sext i32 %103 to i64
  %105 = getelementptr inbounds [11 x [11 x i32]], [11 x [11 x i32]]* @b, i64 0, i64 %104
  %106 = load i32, i32* %3, align 4
  %107 = add nsw i32 %106, 1
  %108 = sext i32 %107 to i64
  %109 = getelementptr inbounds [11 x i32], [11 x i32]* %105, i64 0, i64 %108
  %110 = load i32, i32* %109, align 4
  %111 = add nsw i32 %102, %110
  %112 = load i32, i32* %2, align 4
  %113 = add nsw i32 %112, 1
  %114 = sext i32 %113 to i64
  %115 = getelementptr inbounds [11 x [11 x i32]], [11 x [11 x i32]]* @b, i64 0, i64 %114
  %116 = load i32, i32* %3, align 4
  %117 = sub nsw i32 %116, 1
  %118 = sext i32 %117 to i64
  %119 = getelementptr inbounds [11 x i32], [11 x i32]* %115, i64 0, i64 %118
  %120 = load i32, i32* %119, align 4
  %121 = add nsw i32 %111, %120
  %122 = load i32, i32* %2, align 4
  %123 = add nsw i32 %122, 1
  %124 = sext i32 %123 to i64
  %125 = getelementptr inbounds [11 x [11 x i32]], [11 x [11 x i32]]* @b, i64 0, i64 %124
  %126 = load i32, i32* %3, align 4
  %127 = sext i32 %126 to i64
  %128 = getelementptr inbounds [11 x i32], [11 x i32]* %125, i64 0, i64 %127
  %129 = load i32, i32* %128, align 4
  %130 = add nsw i32 %121, %129
  %131 = load i32, i32* %2, align 4
  %132 = add nsw i32 %131, 1
  %133 = sext i32 %132 to i64
  %134 = getelementptr inbounds [11 x [11 x i32]], [11 x [11 x i32]]* @b, i64 0, i64 %133
  %135 = load i32, i32* %3, align 4
  %136 = add nsw i32 %135, 1
  %137 = sext i32 %136 to i64
  %138 = getelementptr inbounds [11 x i32], [11 x i32]* %134, i64 0, i64 %137
  %139 = load i32, i32* %138, align 4
  %140 = add nsw i32 %130, %139
  %141 = load i32, i32* %2, align 4
  %142 = sext i32 %141 to i64
  %143 = getelementptr inbounds [11 x [11 x i32]], [11 x [11 x i32]]* @a, i64 0, i64 %142
  %144 = load i32, i32* %3, align 4
  %145 = sext i32 %144 to i64
  %146 = getelementptr inbounds [11 x i32], [11 x i32]* %143, i64 0, i64 %145
  store i32 %140, i32* %146, align 4
  br label %147

147:                                              ; preds = %56
  %148 = load i32, i32* %3, align 4
  %149 = add nsw i32 %148, 1
  store i32 %149, i32* %3, align 4
  br label %51

150:                                              ; preds = %51
  br label %151

151:                                              ; preds = %150
  %152 = load i32, i32* %2, align 4
  %153 = add nsw i32 %152, 1
  store i32 %153, i32* %2, align 4
  br label %43

154:                                              ; preds = %43
  %155 = load i32, i32* %4, align 4
  %156 = add nsw i32 %155, 1
  store i32 %156, i32* %4, align 4
  br label %7

157:                                              ; preds = %7
  store i32 1, i32* %2, align 4
  br label %158

158:                                              ; preds = %194, %157
  %159 = load i32, i32* %2, align 4
  %160 = icmp sle i32 %159, 9
  br i1 %160, label %161, label %197

161:                                              ; preds = %158
  store i32 1, i32* %3, align 4
  br label %162

162:                                              ; preds = %174, %161
  %163 = load i32, i32* %3, align 4
  %164 = icmp sle i32 %163, 8
  br i1 %164, label %165, label %177

165:                                              ; preds = %162
  %166 = load i32, i32* %2, align 4
  %167 = sext i32 %166 to i64
  %168 = getelementptr inbounds [11 x [11 x i32]], [11 x [11 x i32]]* @a, i64 0, i64 %167
  %169 = load i32, i32* %3, align 4
  %170 = sext i32 %169 to i64
  %171 = getelementptr inbounds [11 x i32], [11 x i32]* %168, i64 0, i64 %170
  %172 = load i32, i32* %171, align 4
  %173 = call i32 (i8*, ...) @printf(i8* getelementptr inbounds ([4 x i8], [4 x i8]* @.str.1, i64 0, i64 0), i32 %172)
  br label %174

174:                                              ; preds = %165
  %175 = load i32, i32* %3, align 4
  %176 = add nsw i32 %175, 1
  store i32 %176, i32* %3, align 4
  br label %162

177:                                              ; preds = %162
  store i32 9, i32* %3, align 4
  br label %178

178:                                              ; preds = %190, %177
  %179 = load i32, i32* %3, align 4
  %180 = icmp sle i32 %179, 9
  br i1 %180, label %181, label %193

181:                                              ; preds = %178
  %182 = load i32, i32* %2, align 4
  %183 = sext i32 %182 to i64
  %184 = getelementptr inbounds [11 x [11 x i32]], [11 x [11 x i32]]* @a, i64 0, i64 %183
  %185 = load i32, i32* %3, align 4
  %186 = sext i32 %185 to i64
  %187 = getelementptr inbounds [11 x i32], [11 x i32]* %184, i64 0, i64 %186
  %188 = load i32, i32* %187, align 4
  %189 = call i32 (i8*, ...) @printf(i8* getelementptr inbounds ([4 x i8], [4 x i8]* @.str.2, i64 0, i64 0), i32 %188)
  br label %190

190:                                              ; preds = %181
  %191 = load i32, i32* %3, align 4
  %192 = add nsw i32 %191, 1
  store i32 %192, i32* %3, align 4
  br label %178

193:                                              ; preds = %178
  br label %194

194:                                              ; preds = %193
  %195 = load i32, i32* %2, align 4
  %196 = add nsw i32 %195, 1
  store i32 %196, i32* %2, align 4
  br label %158

197:                                              ; preds = %158
  %198 = load i32, i32* %1, align 4
  ret i32 %198
}

; Function Attrs: argmemonly nounwind willreturn
declare void @llvm.memset.p0i8.i64(i8* nocapture writeonly, i8, i64, i1 immarg) #1

declare dso_local i32 @__isoc99_scanf(i8*, ...) #2

declare dso_local i32 @printf(i8*, ...) #2


!llvm.module.flags = !{!0}
!llvm.ident = !{!1}

!0 = !{i32 1, !"wchar_size", i32 4}
!1 = !{!"clang version 10.0.0-4ubuntu1 "}
